target datalayout = "e-m:e-p270:32:32-p271:32:32-p272:64:64-i64:64-i128:128-f80:128-n8:16:32:64-S128"
target triple = "x86_64-pc-linux-gnu"

%struct.ssl_st = type { i32, ptr, ptr, ptr, %struct.CRYPTO_REF_COUNT, ptr, %struct.crypto_ex_data_st }
%struct.CRYPTO_REF_COUNT = type { i32 }
%struct.crypto_ex_data_st = type { ptr, ptr }
%struct.ssl_connection_st = type { %struct.ssl_st, ptr, i32, ptr, ptr, ptr, i32, ptr, i32, i32, i32, i32, %struct.OSSL_TIME, %struct.OSSL_TIME, %struct.ossl_statem_st, i32, ptr, ptr, i64, i64, i64, %struct.ossl_quic_tls_callbacks_st, ptr, ptr, %struct.anon, ptr, ptr, ptr, i32, ptr, %struct.ssl_dane_st, ptr, ptr, ptr, ptr, i32, [64 x i8], [64 x i8], [64 x i8], [64 x i8], [64 x i8], [64 x i8], [64 x i8], [64 x i8], [64 x i8], [64 x i8], [64 x i8], [64 x i8], ptr, [64 x i8], i64, i32, i64, [32 x i8], ptr, ptr, ptr, i64, ptr, [32 x i8], i64, i32, ptr, ptr, i32, i32, ptr, ptr, ptr, ptr, ptr, i64, ptr, ptr, i64, i32, i32, i32, i64, i32, i32, i64, i64, i64, %struct.anon.1, ptr, i32, ptr, ptr, ptr, i32, ptr, ptr, ptr, i32, i32, i32, i32, ptr, i64, i32, ptr, %struct.srp_ctx_st, ptr, %struct.record_layer_st, ptr, ptr, ptr, ptr, i64, i32, i32, i32, i64, i64, i64, ptr, ptr, ptr, ptr, ptr, i64, ptr, i64, ptr, i64 }
%struct.OSSL_TIME = type { i64 }
%struct.ossl_statem_st = type { i32, i32, i32, i32, i32, i32, i32, i32, i32, i32, i32, i32, i32, ptr, ptr, ptr, i8 }
%struct.ossl_quic_tls_callbacks_st = type { ptr, ptr, ptr, ptr, ptr, ptr }
%struct.anon = type { i64, [32 x i8], [32 x i8], ptr, ptr, i32, i32, i32, i32, [2 x i8], i32, i32, i32, i32, %struct.anon.0, [64 x i8], i64, [64 x i8], i64, i32, i32, ptr, i64, ptr, i64, i32, i8, i8, i16, ptr, i16 }
%struct.anon.0 = type { [128 x i8], i64, [128 x i8], i64, i64, i32, ptr, ptr, [4 x ptr], [4 x i16], i64, i32, ptr, i64, ptr, i64, ptr, ptr, ptr, i32, i64, ptr, i32, ptr, i64, ptr, i64, ptr, i64, ptr, ptr, ptr, ptr, i64, i64, ptr, ptr, i32, i32, i32, i32 }
%struct.ssl_dane_st = type { ptr, ptr, ptr, ptr, ptr, i32, i32, i32, i64 }
%struct.anon.1 = type { [29 x i8], ptr, ptr, ptr, i32, ptr, i16, i32, %struct.anon.2, i32, i32, i64, ptr, i64, ptr, i64, ptr, i64, ptr, i64, ptr, i64, ptr, ptr, ptr, ptr, ptr, ptr, ptr, i64, ptr, i64, i32, i32, i32, i32, ptr, i64, i32, i8, i32, [4 x i32], i32, i8, i8, i8, i8 }
%struct.anon.2 = type { ptr, ptr, ptr, i64 }
%struct.srp_ctx_st = type { ptr, ptr, ptr, ptr, ptr, ptr, ptr, ptr, ptr, ptr, ptr, ptr, ptr, ptr, i32, i64 }
%struct.record_layer_st = type { ptr, ptr, ptr, ptr, ptr, ptr, ptr, ptr, i64, i32, i64, [4 x i8], i64, i64, i8, ptr, i32, ptr, ptr, ptr, i64, i64, i64, i64, [32 x %struct.tls_record_st] }
%struct.tls_record_st = type { ptr, i32, i8, ptr, ptr, i64, i64, i16, [8 x i8] }
%struct.buf_mem_st = type { i64, ptr, i64, i64 }
%struct.ssl_method_st = type { i32, i32, i64, ptr, ptr, ptr, ptr, ptr, ptr, ptr, ptr, ptr, ptr, ptr, ptr, ptr, ptr, ptr, ptr, ptr, ptr, ptr, ptr, ptr, ptr, ptr, ptr, ptr, ptr, ptr, ptr, ptr }
%struct.ssl3_enc_method = type { ptr, ptr, ptr, ptr, ptr, i64, ptr, i64, ptr, ptr, i32, ptr, ptr, ptr }

; Function Attrs: nounwind uwtable
define i32 @ssl3_do_write(ptr noundef %0, i8 noundef zeroext %1) #0 {
  %3 = alloca i32, align 4
  %4 = alloca ptr, align 8
  %5 = alloca i8, align 1
  %6 = alloca i32, align 4
  %7 = alloca i64, align 8
  %8 = alloca ptr, align 8
  %9 = alloca ptr, align 8
  %10 = alloca ptr, align 8
  %11 = alloca i64, align 8
  %12 = alloca i32, align 4
  store ptr %0, ptr %4, align 8, !tbaa !18
  store i8 %1, ptr %5, align 1, !tbaa !75
  call void @llvm.lifetime.start.p0(i64 4, ptr %6) #9
  call void @llvm.lifetime.start.p0(i64 8, ptr %7) #9
  store i64 0, ptr %7, align 8, !tbaa !76
  call void @llvm.lifetime.start.p0(i64 8, ptr %8) #9
  %13 = load ptr, ptr %4, align 8, !tbaa !18
  %14 = getelementptr inbounds nuw %struct.ssl_connection_st, ptr %13, i32 0, i32 0
  store ptr %14, ptr %8, align 8, !tbaa !3
  call void @llvm.lifetime.start.p0(i64 8, ptr %9) #9
  %15 = load ptr, ptr %4, align 8, !tbaa !18
  %16 = getelementptr inbounds nuw %struct.ssl_connection_st, ptr %15, i32 0, i32 1
  %17 = load ptr, ptr %16, align 8, !tbaa !77
  store ptr %17, ptr %9, align 8, !tbaa !3
  %18 = load ptr, ptr %4, align 8, !tbaa !18
  %19 = getelementptr inbounds nuw %struct.ssl_connection_st, ptr %18, i32 0, i32 14
  %20 = getelementptr inbounds nuw %struct.ossl_statem_st, ptr %19, i32 0, i32 13
  %21 = load ptr, ptr %20, align 8, !tbaa !20
  %22 = icmp ne ptr %21, null
  br i1 %22, label %23, label %107

23:                                               ; preds = %2
  %24 = load ptr, ptr %4, align 8, !tbaa !18
  %25 = getelementptr inbounds nuw %struct.ssl_connection_st, ptr %24, i32 0, i32 14
  %26 = getelementptr inbounds nuw %struct.ossl_statem_st, ptr %25, i32 0, i32 16
  %27 = load i8, ptr %26, align 8
  %28 = and i8 %27, 1
  %29 = zext i8 %28 to i32
  %30 = icmp ne i32 %29, 0
  br i1 %30, label %107, label %31

31:                                               ; preds = %23
  %32 = load i8, ptr %5, align 1, !tbaa !75
  %33 = zext i8 %32 to i32
  %34 = icmp eq i32 %33, 22
  br i1 %34, label %35, label %107

35:                                               ; preds = %31
  %36 = load ptr, ptr %4, align 8, !tbaa !18
  %37 = getelementptr inbounds nuw %struct.ssl_connection_st, ptr %36, i32 0, i32 18
  %38 = load i64, ptr %37, align 8, !tbaa !78
  %39 = icmp uge i64 %38, 4
  br i1 %39, label %40, label %107

40:                                               ; preds = %35
  call void @llvm.lifetime.start.p0(i64 8, ptr %10) #9
  call void @llvm.lifetime.start.p0(i64 8, ptr %11) #9
  %41 = load ptr, ptr %4, align 8, !tbaa !18
  %42 = getelementptr inbounds nuw %struct.ssl_connection_st, ptr %41, i32 0, i32 14
  %43 = getelementptr inbounds nuw %struct.ossl_statem_st, ptr %42, i32 0, i32 13
  %44 = load ptr, ptr %43, align 8, !tbaa !20
  %45 = load ptr, ptr %4, align 8, !tbaa !18
  %46 = getelementptr inbounds nuw %struct.ssl_connection_st, ptr %45, i32 0, i32 16
  %47 = load ptr, ptr %46, align 8, !tbaa !79
  %48 = getelementptr inbounds nuw %struct.buf_mem_st, ptr %47, i32 0, i32 1
  %49 = load ptr, ptr %48, align 8, !tbaa !80
  %50 = load ptr, ptr %4, align 8, !tbaa !18
  %51 = getelementptr inbounds nuw %struct.ssl_connection_st, ptr %50, i32 0, i32 18
  %52 = load i64, ptr %51, align 8, !tbaa !78
  %53 = load ptr, ptr %4, align 8, !tbaa !18
  %54 = getelementptr inbounds nuw %struct.ssl_connection_st, ptr %53, i32 0, i32 14
  %55 = getelementptr inbounds nuw %struct.ossl_statem_st, ptr %54, i32 0, i32 15
  %56 = load ptr, ptr %55, align 8, !tbaa !73
  %57 = call i32 %44(ptr noundef %49, i64 noundef %52, ptr noundef %10, ptr noundef %11, ptr noundef %56)
  %58 = icmp ne i32 %57, 0
  br i1 %58, label %60, label %59

59:                                               ; preds = %40
  store i32 -1, ptr %3, align 4
  store i32 1, ptr %12, align 4
  br label %104

60:                                               ; preds = %40
  %61 = load i64, ptr %11, align 8, !tbaa !76
  %62 = icmp ult i64 %61, 4
  br i1 %62, label %70, label %63

63:                                               ; preds = %60
  %64 = load ptr, ptr %4, align 8, !tbaa !18
  %65 = getelementptr inbounds nuw %struct.ssl_connection_st, ptr %64, i32 0, i32 16
  %66 = load ptr, ptr %65, align 8, !tbaa !79
  %67 = load i64, ptr %11, align 8, !tbaa !76
  %68 = call i64 @BUF_MEM_grow(ptr noundef %66, i64 noundef %67)
  %69 = icmp ne i64 %68, 0
  br i1 %69, label %71, label %70

70:                                               ; preds = %63, %60
  store i32 -1, ptr %3, align 4
  store i32 1, ptr %12, align 4
  br label %104

71:                                               ; preds = %63
  %72 = load ptr, ptr %4, align 8, !tbaa !18
  %73 = getelementptr inbounds nuw %struct.ssl_connection_st, ptr %72, i32 0, i32 16
  %74 = load ptr, ptr %73, align 8, !tbaa !79
  %75 = getelementptr inbounds nuw %struct.buf_mem_st, ptr %74, i32 0, i32 1
  %76 = load ptr, ptr %75, align 8, !tbaa !80
  %77 = load ptr, ptr %10, align 8, !tbaa !82
  %78 = load i64, ptr %11, align 8, !tbaa !76
  call void @llvm.memcpy.p0.p0.i64(ptr align 1 %76, ptr align 1 %77, i64 %78, i1 false)
  %79 = load i64, ptr %11, align 8, !tbaa !76
  %80 = load ptr, ptr %4, align 8, !tbaa !18
  %81 = getelementptr inbounds nuw %struct.ssl_connection_st, ptr %80, i32 0, i32 18
  store i64 %79, ptr %81, align 8, !tbaa !78
  %82 = load ptr, ptr %4, align 8, !tbaa !18
  %83 = getelementptr inbounds nuw %struct.ssl_connection_st, ptr %82, i32 0, i32 16
  %84 = load ptr, ptr %83, align 8, !tbaa !79
  %85 = getelementptr inbounds nuw %struct.buf_mem_st, ptr %84, i32 0, i32 1
  %86 = load ptr, ptr %85, align 8, !tbaa !80
  %87 = getelementptr inbounds i8, ptr %86, i64 4
  %88 = load ptr, ptr %4, align 8, !tbaa !18
  %89 = getelementptr inbounds nuw %struct.ssl_connection_st, ptr %88, i32 0, i32 17
  store ptr %87, ptr %89, align 8, !tbaa !83
  %90 = load ptr, ptr %4, align 8, !tbaa !18
  %91 = getelementptr inbounds nuw %struct.ssl_connection_st, ptr %90, i32 0, i32 14
  %92 = getelementptr inbounds nuw %struct.ossl_statem_st, ptr %91, i32 0, i32 14
  %93 = load ptr, ptr %92, align 8, !tbaa !74
  %94 = load ptr, ptr %4, align 8, !tbaa !18
  %95 = getelementptr inbounds nuw %struct.ssl_connection_st, ptr %94, i32 0, i32 14
  %96 = getelementptr inbounds nuw %struct.ossl_statem_st, ptr %95, i32 0, i32 15
  %97 = load ptr, ptr %96, align 8, !tbaa !73
  call void %93(ptr noundef %97)
  %98 = load ptr, ptr %4, align 8, !tbaa !18
  %99 = getelementptr inbounds nuw %struct.ssl_connection_st, ptr %98, i32 0, i32 14
  %100 = getelementptr inbounds nuw %struct.ossl_statem_st, ptr %99, i32 0, i32 16
  %101 = load i8, ptr %100, align 8
  %102 = and i8 %101, -2
  %103 = or i8 %102, 1
  store i8 %103, ptr %100, align 8
  store i32 0, ptr %12, align 4
  br label %104

104:                                              ; preds = %71, %70, %59
  call void @llvm.lifetime.end.p0(i64 8, ptr %11) #9
  call void @llvm.lifetime.end.p0(i64 8, ptr %10) #9
  %105 = load i32, ptr %12, align 4
  switch i32 %105, label %246 [
    i32 0, label %106
  ]

106:                                              ; preds = %104
  br label %107

107:                                              ; preds = %106, %35, %31, %23, %2
  %108 = load ptr, ptr %8, align 8, !tbaa !3
  %109 = load i8, ptr %5, align 1, !tbaa !75
  %110 = load ptr, ptr %4, align 8, !tbaa !18
  %111 = getelementptr inbounds nuw %struct.ssl_connection_st, ptr %110, i32 0, i32 16
  %112 = load ptr, ptr %111, align 8, !tbaa !79
  %113 = getelementptr inbounds nuw %struct.buf_mem_st, ptr %112, i32 0, i32 1
  %114 = load ptr, ptr %113, align 8, !tbaa !80
  %115 = load ptr, ptr %4, align 8, !tbaa !18
  %116 = getelementptr inbounds nuw %struct.ssl_connection_st, ptr %115, i32 0, i32 19
  %117 = load i64, ptr %116, align 8, !tbaa !84
  %118 = getelementptr inbounds nuw i8, ptr %114, i64 %117
  %119 = load ptr, ptr %4, align 8, !tbaa !18
  %120 = getelementptr inbounds nuw %struct.ssl_connection_st, ptr %119, i32 0, i32 18
  %121 = load i64, ptr %120, align 8, !tbaa !78
  %122 = call i32 @ssl3_write_bytes(ptr noundef %108, i8 noundef zeroext %109, ptr noundef %118, i64 noundef %121, ptr noundef %7)
  store i32 %122, ptr %6, align 4, !tbaa !85
  %123 = load i32, ptr %6, align 4, !tbaa !85
  %124 = icmp sle i32 %123, 0
  br i1 %124, label %125, label %126

125:                                              ; preds = %107
  store i32 -1, ptr %3, align 4
  store i32 1, ptr %12, align 4
  br label %246

126:                                              ; preds = %107
  %127 = load i8, ptr %5, align 1, !tbaa !75
  %128 = zext i8 %127 to i32
  %129 = icmp eq i32 %128, 22
  br i1 %129, label %130, label %192

130:                                              ; preds = %126
  %131 = load ptr, ptr %4, align 8, !tbaa !18
  %132 = getelementptr inbounds nuw %struct.ssl_connection_st, ptr %131, i32 0, i32 0
  %133 = getelementptr inbounds nuw %struct.ssl_st, ptr %132, i32 0, i32 3
  %134 = load ptr, ptr %133, align 8, !tbaa !86
  %135 = getelementptr inbounds nuw %struct.ssl_method_st, ptr %134, i32 0, i32 28
  %136 = load ptr, ptr %135, align 8, !tbaa !87
  %137 = getelementptr inbounds nuw %struct.ssl3_enc_method, ptr %136, i32 0, i32 10
  %138 = load i32, ptr %137, align 8, !tbaa !90
  %139 = and i32 %138, 8
  %140 = icmp ne i32 %139, 0
  br i1 %140, label %175, label %141

141:                                              ; preds = %130
  %142 = load ptr, ptr %4, align 8, !tbaa !18
  %143 = getelementptr inbounds nuw %struct.ssl_connection_st, ptr %142, i32 0, i32 0
  %144 = getelementptr inbounds nuw %struct.ssl_st, ptr %143, i32 0, i32 3
  %145 = load ptr, ptr %144, align 8, !tbaa !86
  %146 = getelementptr inbounds nuw %struct.ssl_method_st, ptr %145, i32 0, i32 0
  %147 = load i32, ptr %146, align 8, !tbaa !92
  %148 = icmp sge i32 %147, 772
  br i1 %148, label %149, label %175

149:                                              ; preds = %141
  %150 = load ptr, ptr %4, align 8, !tbaa !18
  %151 = getelementptr inbounds nuw %struct.ssl_connection_st, ptr %150, i32 0, i32 0
  %152 = getelementptr inbounds nuw %struct.ssl_st, ptr %151, i32 0, i32 3
  %153 = load ptr, ptr %152, align 8, !tbaa !86
  %154 = getelementptr inbounds nuw %struct.ssl_method_st, ptr %153, i32 0, i32 0
  %155 = load i32, ptr %154, align 8, !tbaa !92
  %156 = icmp ne i32 %155, 65536
  br i1 %156, label %157, label %175

157:                                              ; preds = %149
  %158 = load ptr, ptr %4, align 8, !tbaa !18
  %159 = getelementptr inbounds nuw %struct.ssl_connection_st, ptr %158, i32 0, i32 14
  %160 = getelementptr inbounds nuw %struct.ossl_statem_st, ptr %159, i32 0, i32 5
  %161 = load i32, ptr %160, align 4, !tbaa !93
  %162 = icmp ne i32 %161, 37
  br i1 %162, label %163, label %191

163:                                              ; preds = %157
  %164 = load ptr, ptr %4, align 8, !tbaa !18
  %165 = getelementptr inbounds nuw %struct.ssl_connection_st, ptr %164, i32 0, i32 14
  %166 = getelementptr inbounds nuw %struct.ossl_statem_st, ptr %165, i32 0, i32 5
  %167 = load i32, ptr %166, align 4, !tbaa !93
  %168 = icmp ne i32 %167, 47
  br i1 %168, label %169, label %191

169:                                              ; preds = %163
  %170 = load ptr, ptr %4, align 8, !tbaa !18
  %171 = getelementptr inbounds nuw %struct.ssl_connection_st, ptr %170, i32 0, i32 14
  %172 = getelementptr inbounds nuw %struct.ossl_statem_st, ptr %171, i32 0, i32 5
  %173 = load i32, ptr %172, align 4, !tbaa !93
  %174 = icmp ne i32 %173, 46
  br i1 %174, label %175, label %191

175:                                              ; preds = %169, %149, %141, %130
  %176 = load ptr, ptr %4, align 8, !tbaa !18
  %177 = load ptr, ptr %4, align 8, !tbaa !18
  %178 = getelementptr inbounds nuw %struct.ssl_connection_st, ptr %177, i32 0, i32 16
  %179 = load ptr, ptr %178, align 8, !tbaa !79
  %180 = getelementptr inbounds nuw %struct.buf_mem_st, ptr %179, i32 0, i32 1
  %181 = load ptr, ptr %180, align 8, !tbaa !80
  %182 = load ptr, ptr %4, align 8, !tbaa !18
  %183 = getelementptr inbounds nuw %struct.ssl_connection_st, ptr %182, i32 0, i32 19
  %184 = load i64, ptr %183, align 8, !tbaa !84
  %185 = getelementptr inbounds nuw i8, ptr %181, i64 %184
  %186 = load i64, ptr %7, align 8, !tbaa !76
  %187 = call i32 @ssl3_finish_mac(ptr noundef %176, ptr noundef %185, i64 noundef %186)
  %188 = icmp ne i32 %187, 0
  br i1 %188, label %190, label %189

189:                                              ; preds = %175
  store i32 -1, ptr %3, align 4
  store i32 1, ptr %12, align 4
  br label %246

190:                                              ; preds = %175
  br label %191

191:                                              ; preds = %190, %169, %163, %157
  br label %192

192:                                              ; preds = %191, %126
  %193 = load i64, ptr %7, align 8, !tbaa !76
  %194 = load ptr, ptr %4, align 8, !tbaa !18
  %195 = getelementptr inbounds nuw %struct.ssl_connection_st, ptr %194, i32 0, i32 18
  %196 = load i64, ptr %195, align 8, !tbaa !78
  %197 = icmp eq i64 %193, %196
  br i1 %197, label %198, label %235

198:                                              ; preds = %192
  %199 = load ptr, ptr %4, align 8, !tbaa !18
  %200 = getelementptr inbounds nuw %struct.ssl_connection_st, ptr %199, i32 0, i32 14
  %201 = getelementptr inbounds nuw %struct.ossl_statem_st, ptr %200, i32 0, i32 16
  %202 = load i8, ptr %201, align 8
  %203 = and i8 %202, -2
  %204 = or i8 %203, 0
  store i8 %204, ptr %201, align 8
  %205 = load ptr, ptr %4, align 8, !tbaa !18
  %206 = getelementptr inbounds nuw %struct.ssl_connection_st, ptr %205, i32 0, i32 26
  %207 = load ptr, ptr %206, align 8, !tbaa !94
  %208 = icmp ne ptr %207, null
  br i1 %208, label %209, label %234

209:                                              ; preds = %198
  %210 = load ptr, ptr %4, align 8, !tbaa !18
  %211 = getelementptr inbounds nuw %struct.ssl_connection_st, ptr %210, i32 0, i32 26
  %212 = load ptr, ptr %211, align 8, !tbaa !94
  %213 = load ptr, ptr %4, align 8, !tbaa !18
  %214 = getelementptr inbounds nuw %struct.ssl_connection_st, ptr %213, i32 0, i32 2
  %215 = load i32, ptr %214, align 8, !tbaa !95
  %216 = load i8, ptr %5, align 1, !tbaa !75
  %217 = zext i8 %216 to i32
  %218 = load ptr, ptr %4, align 8, !tbaa !18
  %219 = getelementptr inbounds nuw %struct.ssl_connection_st, ptr %218, i32 0, i32 16
  %220 = load ptr, ptr %219, align 8, !tbaa !79
  %221 = getelementptr inbounds nuw %struct.buf_mem_st, ptr %220, i32 0, i32 1
  %222 = load ptr, ptr %221, align 8, !tbaa !80
  %223 = load ptr, ptr %4, align 8, !tbaa !18
  %224 = getelementptr inbounds nuw %struct.ssl_connection_st, ptr %223, i32 0, i32 19
  %225 = load i64, ptr %224, align 8, !tbaa !84
  %226 = load ptr, ptr %4, align 8, !tbaa !18
  %227 = getelementptr inbounds nuw %struct.ssl_connection_st, ptr %226, i32 0, i32 18
  %228 = load i64, ptr %227, align 8, !tbaa !78
  %229 = add i64 %225, %228
  %230 = load ptr, ptr %9, align 8, !tbaa !3
  %231 = load ptr, ptr %4, align 8, !tbaa !18
  %232 = getelementptr inbounds nuw %struct.ssl_connection_st, ptr %231, i32 0, i32 27
  %233 = load ptr, ptr %232, align 8, !tbaa !96
  call void %212(i32 noundef 1, i32 noundef %215, i32 noundef %217, ptr noundef %222, i64 noundef %229, ptr noundef %230, ptr noundef %233)
  br label %234

234:                                              ; preds = %209, %198
  store i32 1, ptr %3, align 4
  store i32 1, ptr %12, align 4
  br label %246

235:                                              ; preds = %192
  %236 = load i64, ptr %7, align 8, !tbaa !76
  %237 = load ptr, ptr %4, align 8, !tbaa !18
  %238 = getelementptr inbounds nuw %struct.ssl_connection_st, ptr %237, i32 0, i32 19
  %239 = load i64, ptr %238, align 8, !tbaa !84
  %240 = add i64 %239, %236
  store i64 %240, ptr %238, align 8, !tbaa !84
  %241 = load i64, ptr %7, align 8, !tbaa !76
  %242 = load ptr, ptr %4, align 8, !tbaa !18
  %243 = getelementptr inbounds nuw %struct.ssl_connection_st, ptr %242, i32 0, i32 18
  %244 = load i64, ptr %243, align 8, !tbaa !78
  %245 = sub i64 %244, %241
  store i64 %245, ptr %243, align 8, !tbaa !78
  store i32 0, ptr %3, align 4
  store i32 1, ptr %12, align 4
  br label %246

246:                                              ; preds = %235, %234, %189, %125, %104
  call void @llvm.lifetime.end.p0(i64 8, ptr %9) #9
  call void @llvm.lifetime.end.p0(i64 8, ptr %8) #9
  call void @llvm.lifetime.end.p0(i64 8, ptr %7) #9
  call void @llvm.lifetime.end.p0(i64 4, ptr %6) #9
  %247 = load i32, ptr %3, align 4
  ret i32 %247
}