; Function Attrs: nounwind uwtable
define range(i32 -1, 2) i32 @ssl3_do_write(ptr noundef %0, i8 noundef zeroext %1) local_unnamed_addr #0 {
  %3 = alloca i64, align 8
  %4 = alloca ptr, align 8
  %5 = alloca i64, align 8
  call void @llvm.lifetime.start.p0(i64 8, ptr nonnull %3) #11
  store i64 0, ptr %3, align 8, !tbaa !72
  %6 = getelementptr inbounds nuw i8, ptr %0, i64 64
  %7 = load ptr, ptr %6, align 8, !tbaa !73
  %8 = getelementptr inbounds nuw i8, ptr %0, i64 208
  %9 = load ptr, ptr %8, align 8, !tbaa !15
  %.not = icmp eq ptr %9, null
  br i1 %.not, label %51, label %10

10:                                               ; preds = %2
  %11 = getelementptr inbounds nuw i8, ptr %0, i64 232
  %12 = load i8, ptr %11, align 8
  %13 = and i8 %12, 1
  %14 = icmp eq i8 %13, 0
  %15 = icmp eq i8 %1, 22
  %or.cond = and i1 %15, %14
  br i1 %or.cond, label %16, label %51

16:                                               ; preds = %10
  %17 = getelementptr inbounds nuw i8, ptr %0, i64 264
  %18 = load i64, ptr %17, align 8, !tbaa !74
  %19 = icmp ugt i64 %18, 3
  br i1 %19, label %20, label %51

20:                                               ; preds = %16
  call void @llvm.lifetime.start.p0(i64 8, ptr nonnull %4) #11
  call void @llvm.lifetime.start.p0(i64 8, ptr nonnull %5) #11
  %21 = getelementptr inbounds nuw i8, ptr %0, i64 248
  %22 = load ptr, ptr %21, align 8, !tbaa !75
  %23 = getelementptr inbounds nuw i8, ptr %22, i64 8
  %24 = load ptr, ptr %23, align 8, !tbaa !76
  %25 = getelementptr inbounds nuw i8, ptr %0, i64 224
  %26 = load ptr, ptr %25, align 8, !tbaa !70
  %27 = call i32 %9(ptr noundef %24, i64 noundef %18, ptr noundef nonnull %4, ptr noundef nonnull %5, ptr noundef %26) #11
  %.not56 = icmp eq i32 %27, 0
  br i1 %.not56, label %50, label %28

28:                                               ; preds = %20
  %29 = load i64, ptr %5, align 8, !tbaa !72
  %30 = icmp ult i64 %29, 4
  br i1 %30, label %50, label %31

31:                                               ; preds = %28
  %32 = load ptr, ptr %21, align 8, !tbaa !75
  %33 = call i64 @BUF_MEM_grow(ptr noundef %32, i64 noundef %29) #11
  %.not57 = icmp eq i64 %33, 0
  br i1 %.not57, label %50, label %.critedge

.critedge:                                        ; preds = %31
  %34 = load ptr, ptr %21, align 8, !tbaa !75
  %35 = getelementptr inbounds nuw i8, ptr %34, i64 8
  %36 = load ptr, ptr %35, align 8, !tbaa !76
  %37 = load ptr, ptr %4, align 8, !tbaa !78
  %38 = load i64, ptr %5, align 8, !tbaa !72
  call void @llvm.memcpy.p0.p0.i64(ptr align 1 %36, ptr align 1 %37, i64 %38, i1 false)
  %39 = load i64, ptr %5, align 8, !tbaa !72
  store i64 %39, ptr %17, align 8, !tbaa !74
  %40 = load ptr, ptr %21, align 8, !tbaa !75
  %41 = getelementptr inbounds nuw i8, ptr %40, i64 8
  %42 = load ptr, ptr %41, align 8, !tbaa !76
  %43 = getelementptr inbounds nuw i8, ptr %42, i64 4
  %44 = getelementptr inbounds nuw i8, ptr %0, i64 256
  store ptr %43, ptr %44, align 8, !tbaa !79
  %45 = getelementptr inbounds nuw i8, ptr %0, i64 216
  %46 = load ptr, ptr %45, align 8, !tbaa !71
  %47 = load ptr, ptr %25, align 8, !tbaa !70
  call void %46(ptr noundef %47) #11
  %48 = load i8, ptr %11, align 8
  %49 = or i8 %48, 1
  store i8 %49, ptr %11, align 8
  call void @llvm.lifetime.end.p0(i64 8, ptr nonnull %5) #11
  call void @llvm.lifetime.end.p0(i64 8, ptr nonnull %4) #11
  br label %51

50:                                               ; preds = %28, %31, %20
  call void @llvm.lifetime.end.p0(i64 8, ptr nonnull %5) #11
  call void @llvm.lifetime.end.p0(i64 8, ptr nonnull %4) #11
  br label %112

51:                                               ; preds = %.critedge, %16, %10, %2
  %52 = getelementptr inbounds nuw i8, ptr %0, i64 248
  %53 = load ptr, ptr %52, align 8, !tbaa !75
  %54 = getelementptr inbounds nuw i8, ptr %53, i64 8
  %55 = load ptr, ptr %54, align 8, !tbaa !76
  %56 = getelementptr inbounds nuw i8, ptr %0, i64 272
  %57 = load i64, ptr %56, align 8, !tbaa !80
  %58 = getelementptr inbounds nuw i8, ptr %55, i64 %57
  %59 = getelementptr inbounds nuw i8, ptr %0, i64 264
  %60 = load i64, ptr %59, align 8, !tbaa !74
  %61 = call i32 @ssl3_write_bytes(ptr noundef nonnull %0, i8 noundef zeroext %1, ptr noundef %58, i64 noundef %60, ptr noundef nonnull %3) #11
  %62 = icmp slt i32 %61, 1
  br i1 %62, label %112, label %63

63:                                               ; preds = %51
  %64 = zext i8 %1 to i32
  %65 = icmp eq i8 %1, 22
  br i1 %65, label %66, label %88

66:                                               ; preds = %63
  %67 = getelementptr inbounds nuw i8, ptr %0, i64 24
  %68 = load ptr, ptr %67, align 8, !tbaa !81
  %69 = getelementptr inbounds nuw i8, ptr %68, i64 216
  %70 = load ptr, ptr %69, align 8, !tbaa !82
  %71 = getelementptr inbounds nuw i8, ptr %70, i64 80
  %72 = load i32, ptr %71, align 8, !tbaa !85
  %73 = and i32 %72, 8
  %.not58 = icmp eq i32 %73, 0
  br i1 %.not58, label %74, label %80

74:                                               ; preds = %66
  %75 = load i32, ptr %68, align 8, !tbaa !87
  %76 = icmp slt i32 %75, 772
  %.not59 = icmp eq i32 %75, 65536
  %or.cond65 = or i1 %76, %.not59
  br i1 %or.cond65, label %80, label %77

77:                                               ; preds = %74
  %78 = getelementptr inbounds nuw i8, ptr %0, i64 172
  %79 = load i32, ptr %78, align 4, !tbaa !88
  switch i32 %79, label %80 [
    i32 37, label %88
    i32 47, label %88
    i32 46, label %88
  ]

80:                                               ; preds = %77, %74, %66
  %81 = load ptr, ptr %52, align 8, !tbaa !75
  %82 = getelementptr inbounds nuw i8, ptr %81, i64 8
  %83 = load ptr, ptr %82, align 8, !tbaa !76
  %84 = load i64, ptr %56, align 8, !tbaa !80
  %85 = getelementptr inbounds nuw i8, ptr %83, i64 %84
  %86 = load i64, ptr %3, align 8, !tbaa !72
  %87 = call i32 @ssl3_finish_mac(ptr noundef nonnull %0, ptr noundef %85, i64 noundef %86) #11
  %.not63 = icmp eq i32 %87, 0
  br i1 %.not63, label %112, label %88

88:                                               ; preds = %77, %77, %77, %80, %63
  %89 = load i64, ptr %3, align 8, !tbaa !72
  %90 = load i64, ptr %59, align 8, !tbaa !74
  %91 = icmp eq i64 %89, %90
  br i1 %91, label %92, label %108

92:                                               ; preds = %88
  %93 = getelementptr inbounds nuw i8, ptr %0, i64 232
  %94 = load i8, ptr %93, align 8
  %95 = and i8 %94, -2
  store i8 %95, ptr %93, align 8
  %96 = getelementptr inbounds nuw i8, ptr %0, i64 1272
  %97 = load ptr, ptr %96, align 8, !tbaa !89
  %.not64 = icmp eq ptr %97, null
  br i1 %.not64, label %112, label %98

98:                                               ; preds = %92
  %99 = getelementptr inbounds nuw i8, ptr %0, i64 72
  %100 = load i32, ptr %99, align 8, !tbaa !90
  %101 = load ptr, ptr %52, align 8, !tbaa !75
  %102 = getelementptr inbounds nuw i8, ptr %101, i64 8
  %103 = load ptr, ptr %102, align 8, !tbaa !76
  %104 = load i64, ptr %56, align 8, !tbaa !80
  %105 = add i64 %104, %89
  %106 = getelementptr inbounds nuw i8, ptr %0, i64 1280
  %107 = load ptr, ptr %106, align 8, !tbaa !91
  call void %97(i32 noundef 1, i32 noundef %100, i32 noundef %64, ptr noundef %103, i64 noundef %105, ptr noundef %7, ptr noundef %107) #11
  br label %112

108:                                              ; preds = %88
  %109 = load i64, ptr %56, align 8, !tbaa !80
  %110 = add i64 %109, %89
  store i64 %110, ptr %56, align 8, !tbaa !80
  %111 = sub i64 %90, %89
  store i64 %111, ptr %59, align 8, !tbaa !74
  br label %112

112:                                              ; preds = %92, %98, %80, %51, %50, %108
  %.1 = phi i32 [ 0, %108 ], [ -1, %50 ], [ -1, %51 ], [ -1, %80 ], [ 1, %98 ], [ 1, %92 ]
  call void @llvm.lifetime.end.p0(i64 8, ptr nonnull %3) #11
  ret i32 %.1
}